; ModuleID = 'source-C-CXX/27/1956.c'
source_filename = "source-C-CXX/27/1956.c"
target datalayout = "e-m:e-p270:32:32-p271:32:32-p272:64:64-i64:64-f80:128-n8:16:32:64-S128"
target triple = "x86_64-pc-linux-gnu"

@.str = private unnamed_addr constant [3 x i8] c"%d\00", align 1

; Function Attrs: nounwind sspstrong uwtable
define dso_local i32 @main() local_unnamed_addr #0 {
  %1 = alloca [1000 x i8], align 16
  %2 = alloca [1000 x i32], align 16
  %3 = getelementptr inbounds [1000 x i8], [1000 x i8]* %1, i64 0, i64 0
  call void @llvm.lifetime.start.p0i8(i64 1000, i8* nonnull %3) #7
  %4 = bitcast [1000 x i32]* %2 to i8*
  call void @llvm.lifetime.start.p0i8(i64 4000, i8* nonnull %4) #7
  call void @llvm.memset.p0i8.i64(i8* noundef nonnull align 16 dereferenceable(4000) %4, i8 0, i64 4000, i1 false)
  %5 = call i32 (i8*, ...) bitcast (i32 (...)* @gets to i32 (i8*, ...)*)(i8* nonnull %3) #7
  %6 = call i64 @strlen(i8* noundef nonnull %3) #8
  %7 = trunc i64 %6 to i32
  %8 = icmp sgt i32 %7, 0
  br i1 %8, label %9, label %13

9:                                                ; preds = %0
  %10 = and i64 %6, 4294967295
  br label %18

11:                                               ; preds = %37
  %12 = icmp slt i32 %39, 0
  br i1 %12, label %52, label %13

13:                                               ; preds = %0, %11
  %14 = phi i32 [ %39, %11 ], [ 0, %0 ]
  %15 = zext i32 %14 to i64
  %16 = add nuw i32 %14, 1
  %17 = zext i32 %16 to i64
  br label %41

18:                                               ; preds = %9, %37
  %19 = phi i64 [ 0, %9 ], [ %38, %37 ]
  %20 = phi i32 [ 0, %9 ], [ %39, %37 ]
  %21 = getelementptr inbounds [1000 x i8], [1000 x i8]* %1, i64 0, i64 %19
  %22 = load i8, i8* %21, align 1, !tbaa !5
  %23 = icmp eq i8 %22, 32
  br i1 %23, label %30, label %24

24:                                               ; preds = %18
  %25 = sext i32 %20 to i64
  %26 = getelementptr inbounds [1000 x i32], [1000 x i32]* %2, i64 0, i64 %25
  %27 = load i32, i32* %26, align 4, !tbaa !8
  %28 = add nsw i32 %27, 1
  store i32 %28, i32* %26, align 4, !tbaa !8
  %29 = add nuw nsw i64 %19, 1
  br label %37

30:                                               ; preds = %18
  %31 = add nuw nsw i64 %19, 1
  %32 = getelementptr inbounds [1000 x i8], [1000 x i8]* %1, i64 0, i64 %31
  %33 = load i8, i8* %32, align 1, !tbaa !5
  %34 = icmp ne i8 %33, 32
  %35 = zext i1 %34 to i32
  %36 = add nsw i32 %20, %35
  br label %37

37:                                               ; preds = %30, %24
  %38 = phi i64 [ %31, %30 ], [ %29, %24 ]
  %39 = phi i32 [ %36, %30 ], [ %20, %24 ]
  %40 = icmp eq i64 %38, %10
  br i1 %40, label %11, label %18, !llvm.loop !10

41:                                               ; preds = %13, %49
  %42 = phi i64 [ 0, %13 ], [ %50, %49 ]
  %43 = getelementptr inbounds [1000 x i32], [1000 x i32]* %2, i64 0, i64 %42
  %44 = load i32, i32* %43, align 4, !tbaa !8
  %45 = call i32 (i8*, ...) @printf(i8* nonnull dereferenceable(1) getelementptr inbounds ([3 x i8], [3 x i8]* @.str, i64 0, i64 0), i32 %44)
  %46 = icmp eq i64 %42, %15
  br i1 %46, label %49, label %47

47:                                               ; preds = %41
  %48 = call i32 @putchar(i32 44)
  br label %49

49:                                               ; preds = %41, %47
  %50 = add nuw nsw i64 %42, 1
  %51 = icmp eq i64 %50, %17
  br i1 %51, label %52, label %41, !llvm.loop !12

52:                                               ; preds = %49, %11
  call void @llvm.lifetime.end.p0i8(i64 4000, i8* nonnull %4) #7
  call void @llvm.lifetime.end.p0i8(i64 1000, i8* nonnull %3) #7
  ret i32 0
}

; Function Attrs: argmemonly mustprogress nofree nosync nounwind willreturn
declare void @llvm.lifetime.start.p0i8(i64 immarg, i8* nocapture) #1

; Function Attrs: argmemonly mustprogress nofree nounwind willreturn writeonly
declare void @llvm.memset.p0i8.i64(i8* nocapture writeonly, i8, i64, i1 immarg) #2

declare i32 @gets(...) local_unnamed_addr #3

; Function Attrs: argmemonly mustprogress nofree nounwind readonly willreturn
declare i64 @strlen(i8* nocapture) local_unnamed_addr #4

; Function Attrs: nofree nounwind
declare noundef i32 @printf(i8* nocapture noundef readonly, ...) local_unnamed_addr #5

; Function Attrs: argmemonly mustprogress nofree nosync nounwind willreturn
declare void @llvm.lifetime.end.p0i8(i64 immarg, i8* nocapture) #1

; Function Attrs: nofree nounwind
declare noundef i32 @putchar(i32 noundef) local_unnamed_addr #6


!llvm.module.flags = !{!0, !1, !2, !3}
!llvm.ident = !{!4}

!0 = !{i32 1, !"wchar_size", i32 4}
!1 = !{i32 7, !"PIC Level", i32 2}
!2 = !{i32 7, !"PIE Level", i32 2}
!3 = !{i32 7, !"uwtable", i32 1}
!4 = !{!"clang version 13.0.0"}
!5 = !{!6, !6, i64 0}
!6 = !{!"omnipotent char", !7, i64 0}
!7 = !{!"Simple C/C++ TBAA"}
!8 = !{!9, !9, i64 0}
!9 = !{!"int", !6, i64 0}
!10 = distinct !{!10, !11}
!11 = !{!"llvm.loop.mustprogress"}
!12 = distinct !{!12, !11}
